target datalayout = "e-m:e-p270:32:32-p271:32:32-p272:64:64-i64:64-i128:128-f80:128-n8:16:32:64-S128"
target triple = "x86_64-pc-linux-gnu"

; Function Attrs: inlinehint nounwind uwtable
define internal void @transpose_block_8_c(ptr noundef %0, i64 noundef %1, ptr noundef %2, i64 noundef %3, i32 noundef %4, i32 noundef %5) #8 {
  %7 = alloca ptr, align 8
  %8 = alloca i64, align 8
  %9 = alloca ptr, align 8
  %10 = alloca i64, align 8
  %11 = alloca i32, align 4
  %12 = alloca i32, align 4
  %13 = alloca i32, align 4
  %14 = alloca i32, align 4
  store ptr %0, ptr %7, align 8, !tbaa !74
  store i64 %1, ptr %8, align 8, !tbaa !90
  store ptr %2, ptr %9, align 8, !tbaa !74
  store i64 %3, ptr %10, align 8, !tbaa !90
  store i32 %4, ptr %11, align 4, !tbaa !14
  store i32 %5, ptr %12, align 4, !tbaa !14
  call void @llvm.lifetime.start.p0(i64 4, ptr %13) #9
  call void @llvm.lifetime.start.p0(i64 4, ptr %14) #9
  store i32 0, ptr %14, align 4, !tbaa !14
  br label %15

15:                                               ; preds = %40, %6
  %16 = load i32, ptr %14, align 4, !tbaa !14
  %17 = load i32, ptr %12, align 4, !tbaa !14
  %18 = icmp slt i32 %16, %17
  br i1 %18, label %19, label %48

19:                                               ; preds = %15
  store i32 0, ptr %13, align 4, !tbaa !14
  br label %20

20:                                               ; preds = %36, %19
  %21 = load i32, ptr %13, align 4, !tbaa !14
  %22 = load i32, ptr %11, align 4, !tbaa !14
  %23 = icmp slt i32 %21, %22
  br i1 %23, label %24, label %39

24:                                               ; preds = %20
  %25 = load ptr, ptr %7, align 8, !tbaa !74
  %26 = load i32, ptr %13, align 4, !tbaa !14
  %27 = sext i32 %26 to i64
  %28 = load i64, ptr %8, align 8, !tbaa !90
  %29 = mul nsw i64 %27, %28
  %30 = getelementptr inbounds i8, ptr %25, i64 %29
  %31 = load i8, ptr %30, align 1, !tbaa !91
  %32 = load ptr, ptr %9, align 8, !tbaa !74
  %33 = load i32, ptr %13, align 4, !tbaa !14
  %34 = sext i32 %33 to i64
  %35 = getelementptr inbounds i8, ptr %32, i64 %34
  store i8 %31, ptr %35, align 1, !tbaa !91
  br label %36

36:                                               ; preds = %24
  %37 = load i32, ptr %13, align 4, !tbaa !14
  %38 = add nsw i32 %37, 1
  store i32 %38, ptr %13, align 4, !tbaa !14
  br label %20, !llvm.loop !92

39:                                               ; preds = %20
  br label %40

40:                                               ; preds = %39
  %41 = load i32, ptr %14, align 4, !tbaa !14
  %42 = add nsw i32 %41, 1
  store i32 %42, ptr %14, align 4, !tbaa !14
  %43 = load i64, ptr %10, align 8, !tbaa !90
  %44 = load ptr, ptr %9, align 8, !tbaa !74
  %45 = getelementptr inbounds i8, ptr %44, i64 %43
  store ptr %45, ptr %9, align 8, !tbaa !74
  %46 = load ptr, ptr %7, align 8, !tbaa !74
  %47 = getelementptr inbounds nuw i8, ptr %46, i32 1
  store ptr %47, ptr %7, align 8, !tbaa !74
  br label %15, !llvm.loop !93

48:                                               ; preds = %15
  call void @llvm.lifetime.end.p0(i64 4, ptr %14) #9
  call void @llvm.lifetime.end.p0(i64 4, ptr %13) #9
  ret void
}

; Function Attrs: nounwind uwtable
define internal void @transpose_8x8_8_c(ptr noundef %0, i64 noundef %1, ptr noundef %2, i64 noundef %3) #0 {
  %5 = alloca ptr, align 8
  %6 = alloca i64, align 8
  %7 = alloca ptr, align 8
  %8 = alloca i64, align 8
  store ptr %0, ptr %5, align 8, !tbaa !74
  store i64 %1, ptr %6, align 8, !tbaa !90
  store ptr %2, ptr %7, align 8, !tbaa !74
  store i64 %3, ptr %8, align 8, !tbaa !90
  %9 = load ptr, ptr %5, align 8, !tbaa !74
  %10 = load i64, ptr %6, align 8, !tbaa !90
  %11 = load ptr, ptr %7, align 8, !tbaa !74
  %12 = load i64, ptr %8, align 8, !tbaa !90
  call void @transpose_block_8_c(ptr noundef %9, i64 noundef %10, ptr noundef %11, i64 noundef %12, i32 noundef 8, i32 noundef 8)
  ret void
}